(dp1
V 
I0
sV\u3131
I4
sV\u3133
I48
sV\u3132
I35
sV\u3135
I46
sV\u3134
I3
sV\u3137
I10
sV\u3136
I37
sV\u3139
I5
sV\u3138
I34
sV\u313b
I44
sV\u313a
I36
sV\u313c
I45
sV\u313f
I50
sV\u313e
I49
sV\u3141
I14
sV\u3140
I43
sV\u3143
I41
sV\u3142
I16
sV\u3145
I8
sV\u3144
I39
sV\u3147
I1
sV\u3146
I20
sV\u3149
I40
sV\u3148
I11
sV\u314b
I27
sV\u314a
I21
sV\u314d
I23
sV\u314c
I22
sV\u314f
I2
sV\u314e
I13
sV\u3151
I32
sV\u3150
I17
sV\u3153
I12
sV\u3152
I47
sV\u3155
I18
sV\u3154
I19
sV\u3157
I9
sV\u3156
I33
sV\u3159
I38
sV\u3158
I24
sV\u315b
I29
sV\u315a
I26
sV\u315d
I28
sV\u315c
I15
sV\u315f
I31
sV\u315e
I42
sV\u3161
I7
sV\u3160
I30
sV\u3163
I6
sV\u3162
I25
s.(dp1
I0
V 
sI1
V\u3147
sI2
V\u314f
sI3
V\u3134
sI4
V\u3131
sI5
V\u3139
sI6
V\u3163
sI7
V\u3161
sI8
V\u3145
sI9
V\u3157
sI10
V\u3137
sI11
V\u3148
sI12
V\u3153
sI13
V\u314e
sI14
V\u3141
sI15
V\u315c
sI16
V\u3142
sI17
V\u3150
sI18
V\u3155
sI19
V\u3154
sI20
V\u3146
sI21
V\u314a
sI22
V\u314c
sI23
V\u314d
sI24
V\u3158
sI25
V\u3162
sI26
V\u315a
sI27
V\u314b
sI28
V\u315d
sI29
V\u315b
sI30
V\u3160
sI31
V\u315f
sI32
V\u3151
sI33
V\u3156
sI34
V\u3138
sI35
V\u3132
sI36
V\u313a
sI37
V\u3136
sI38
V\u3159
sI39
V\u3144
sI40
V\u3149
sI41
V\u3143
sI42
V\u315e
sI43
V\u3140
sI44
V\u313b
sI45
V\u313c
sI46
V\u3135
sI47
V\u3152
sI48
V\u3133
sI49
V\u313e
sI50
V\u313f
s.